target datalayout = "e-m:e-p270:32:32-p271:32:32-p272:64:64-i64:64-i128:128-f80:128-n8:16:32:64-S128"
target triple = "x86_64-pc-linux-gnu"

@.str = private unnamed_addr constant [123 x i8] c"generated/home/dtcxzyw/WorkSpace/Projects/compilers/llvm-opt-benchmark/bench/libquic/libquic/boringssl/crypto/ec/p256-64.c\00", align 1

; Function Attrs: nounwind uwtable
define internal void @bin32_to_felem(ptr noundef %0, ptr noundef %1) #0 {
  %3 = alloca ptr, align 8
  %4 = alloca ptr, align 8
  store ptr %0, ptr %3, align 8, !tbaa !32
  store ptr %1, ptr %4, align 8, !tbaa !25
  %5 = load ptr, ptr %4, align 8, !tbaa !25
  %6 = getelementptr inbounds i8, ptr %5, i64 0
  %7 = load i64, ptr %6, align 8, !tbaa !17
  %8 = zext i64 %7 to i128
  %9 = load ptr, ptr %3, align 8, !tbaa !32
  %10 = getelementptr inbounds i128, ptr %9, i64 0
  store i128 %8, ptr %10, align 16, !tbaa !41
  %11 = load ptr, ptr %4, align 8, !tbaa !25
  %12 = getelementptr inbounds i8, ptr %11, i64 8
  %13 = load i64, ptr %12, align 8, !tbaa !17
  %14 = zext i64 %13 to i128
  %15 = load ptr, ptr %3, align 8, !tbaa !32
  %16 = getelementptr inbounds i128, ptr %15, i64 1
  store i128 %14, ptr %16, align 16, !tbaa !41
  %17 = load ptr, ptr %4, align 8, !tbaa !25
  %18 = getelementptr inbounds i8, ptr %17, i64 16
  %19 = load i64, ptr %18, align 8, !tbaa !17
  %20 = zext i64 %19 to i128
  %21 = load ptr, ptr %3, align 8, !tbaa !32
  %22 = getelementptr inbounds i128, ptr %21, i64 2
  store i128 %20, ptr %22, align 16, !tbaa !41
  %23 = load ptr, ptr %4, align 8, !tbaa !25
  %24 = getelementptr inbounds i8, ptr %23, i64 24
  %25 = load i64, ptr %24, align 8, !tbaa !17
  %26 = zext i64 %25 to i128
  %27 = load ptr, ptr %3, align 8, !tbaa !32
  %28 = getelementptr inbounds i128, ptr %27, i64 3
  store i128 %26, ptr %28, align 16, !tbaa !41
  ret void
}

; Function Attrs: nounwind uwtable
define internal void @flip_endian(ptr noundef %0, ptr noundef %1, i64 noundef %2) #0 {
  %4 = alloca ptr, align 8
  %5 = alloca ptr, align 8
  %6 = alloca i64, align 8
  %7 = alloca i64, align 8
  store ptr %0, ptr %4, align 8, !tbaa !25
  store ptr %1, ptr %5, align 8, !tbaa !25
  store i64 %2, ptr %6, align 8, !tbaa !17
  call void @llvm.lifetime.start.p0(i64 8, ptr %7) #6
  store i64 0, ptr %7, align 8, !tbaa !17
  br label %8

8:                                                ; preds = %23, %3
  %9 = load i64, ptr %7, align 8, !tbaa !17
  %10 = load i64, ptr %6, align 8, !tbaa !17
  %11 = icmp ult i64 %9, %10
  br i1 %11, label %12, label %26

12:                                               ; preds = %8
  %13 = load ptr, ptr %5, align 8, !tbaa !25
  %14 = load i64, ptr %6, align 8, !tbaa !17
  %15 = sub i64 %14, 1
  %16 = load i64, ptr %7, align 8, !tbaa !17
  %17 = sub i64 %15, %16
  %18 = getelementptr inbounds nuw i8, ptr %13, i64 %17
  %19 = load i8, ptr %18, align 1, !tbaa !44
  %20 = load ptr, ptr %4, align 8, !tbaa !25
  %21 = load i64, ptr %7, align 8, !tbaa !17
  %22 = getelementptr inbounds nuw i8, ptr %20, i64 %21
  store i8 %19, ptr %22, align 1, !tbaa !44
  br label %23

23:                                               ; preds = %12
  %24 = load i64, ptr %7, align 8, !tbaa !17
  %25 = add i64 %24, 1
  store i64 %25, ptr %7, align 8, !tbaa !17
  br label %8, !llvm.loop !45

26:                                               ; preds = %8
  call void @llvm.lifetime.end.p0(i64 8, ptr %7) #6
  ret void
}

; Function Attrs: nounwind uwtable
define internal i32 @BN_to_felem(ptr noundef %0, ptr noundef %1) #0 {
  %3 = alloca i32, align 4
  %4 = alloca ptr, align 8
  %5 = alloca ptr, align 8
  %6 = alloca [32 x i8], align 16
  %7 = alloca i64, align 8
  %8 = alloca i32, align 4
  %9 = alloca [32 x i8], align 16
  store ptr %0, ptr %4, align 8, !tbaa !32
  store ptr %1, ptr %5, align 8, !tbaa !13
  %10 = load ptr, ptr %5, align 8, !tbaa !13
  %11 = call i32 @BN_is_negative(ptr noundef %10)
  %12 = icmp ne i32 %11, 0
  br i1 %12, label %13, label %14

13:                                               ; preds = %2
  call void @ERR_put_error(i32 noundef 15, i32 noundef 0, i32 noundef 126, ptr noundef @.str, i32 noundef 106)
  store i32 0, ptr %3, align 4
  br label %32

14:                                               ; preds = %2
  call void @llvm.lifetime.start.p0(i64 32, ptr %6) #6
  %15 = getelementptr inbounds [32 x i8], ptr %6, i64 0, i64 0
  call void @llvm.memset.p0.i64(ptr align 16 %15, i8 0, i64 32, i1 false)
  call void @llvm.lifetime.start.p0(i64 8, ptr %7) #6
  %16 = load ptr, ptr %5, align 8, !tbaa !13
  %17 = call i32 @BN_num_bytes(ptr noundef %16)
  %18 = zext i32 %17 to i64
  store i64 %18, ptr %7, align 8, !tbaa !17
  %19 = load i64, ptr %7, align 8, !tbaa !17
  %20 = icmp ugt i64 %19, 32
  br i1 %20, label %21, label %22

21:                                               ; preds = %14
  call void @ERR_put_error(i32 noundef 15, i32 noundef 0, i32 noundef 126, ptr noundef @.str, i32 noundef 115)
  store i32 0, ptr %3, align 4
  store i32 1, ptr %8, align 4
  br label %31

22:                                               ; preds = %14
  call void @llvm.lifetime.start.p0(i64 32, ptr %9) #6
  %23 = load ptr, ptr %5, align 8, !tbaa !13
  %24 = getelementptr inbounds [32 x i8], ptr %9, i64 0, i64 0
  %25 = call i64 @BN_bn2bin(ptr noundef %23, ptr noundef %24)
  store i64 %25, ptr %7, align 8, !tbaa !17
  %26 = getelementptr inbounds [32 x i8], ptr %6, i64 0, i64 0
  %27 = getelementptr inbounds [32 x i8], ptr %9, i64 0, i64 0
  %28 = load i64, ptr %7, align 8, !tbaa !17
  call void @flip_endian(ptr noundef %26, ptr noundef %27, i64 noundef %28)
  %29 = load ptr, ptr %4, align 8, !tbaa !32
  %30 = getelementptr inbounds [32 x i8], ptr %6, i64 0, i64 0
  call void @bin32_to_felem(ptr noundef %29, ptr noundef %30)
  store i32 1, ptr %3, align 4
  store i32 1, ptr %8, align 4
  call void @llvm.lifetime.end.p0(i64 32, ptr %9) #6
  br label %31

31:                                               ; preds = %22, %21
  call void @llvm.lifetime.end.p0(i64 8, ptr %7) #6
  call void @llvm.lifetime.end.p0(i64 32, ptr %6) #6
  br label %32

32:                                               ; preds = %31, %13
  %33 = load i32, ptr %3, align 4
  ret i32 %33
}