; Function Attrs: nounwind uwtable
define internal fastcc range(i32 0, 2) i32 @BN_to_felem(ptr noundef nonnull writeonly captures(none) %0, ptr noundef %1) unnamed_addr #2 {
  %3 = alloca [32 x i8], align 16
  %4 = alloca [32 x i8], align 16
  %5 = tail call i32 @BN_is_negative(ptr noundef %1) #9
  %.not = icmp eq i32 %5, 0
  br i1 %.not, label %7, label %6

6:                                                ; preds = %2
  tail call void @ERR_put_error(i32 noundef 15, i32 noundef 0, i32 noundef 126, ptr noundef nonnull @.str, i32 noundef 106) #9
  br label %32

7:                                                ; preds = %2
  call void @llvm.lifetime.start.p0(i64 32, ptr nonnull %3) #9
  call void @llvm.memset.p0.i64(ptr noundef nonnull align 16 dereferenceable(32) %3, i8 0, i64 32, i1 false)
  %8 = tail call i32 @BN_num_bytes(ptr noundef %1) #9
  %9 = icmp ugt i32 %8, 32
  br i1 %9, label %10, label %11

10:                                               ; preds = %7
  tail call void @ERR_put_error(i32 noundef 15, i32 noundef 0, i32 noundef 126, ptr noundef nonnull @.str, i32 noundef 115) #9
  br label %31

11:                                               ; preds = %7
  call void @llvm.lifetime.start.p0(i64 32, ptr nonnull %4) #9
  %12 = call i64 @BN_bn2bin(ptr noundef %1, ptr noundef nonnull %4) #9
  %.not.i = icmp eq i64 %12, 0
  br i1 %.not.i, label %flip_endian.exit, label %.lr.ph.i

.lr.ph.i:                                         ; preds = %11
  %13 = getelementptr i8, ptr %4, i64 %12
  br label %14

14:                                               ; preds = %14, %.lr.ph.i
  %.08.i = phi i64 [ 0, %.lr.ph.i ], [ %19, %14 ]
  %15 = xor i64 %.08.i, -1
  %16 = getelementptr i8, ptr %13, i64 %15
  %17 = load i8, ptr %16, align 1, !tbaa !20
  %18 = getelementptr inbounds nuw i8, ptr %3, i64 %.08.i
  store i8 %17, ptr %18, align 1, !tbaa !20
  %19 = add nuw i64 %.08.i, 1
  %exitcond.not.i = icmp eq i64 %19, %12
  br i1 %exitcond.not.i, label %flip_endian.exit.loopexit, label %14, !llvm.loop !21

flip_endian.exit.loopexit:                        ; preds = %14
  %.pre = load i64, ptr %3, align 16, !tbaa !18
  %.phi.trans.insert = getelementptr inbounds nuw i8, ptr %3, i64 8
  %.pre6 = load i64, ptr %.phi.trans.insert, align 8, !tbaa !18
  %.phi.trans.insert7 = getelementptr inbounds nuw i8, ptr %3, i64 16
  %.pre8 = load i64, ptr %.phi.trans.insert7, align 16, !tbaa !18
  %.phi.trans.insert9 = getelementptr inbounds nuw i8, ptr %3, i64 24
  %.pre10 = load i64, ptr %.phi.trans.insert9, align 8, !tbaa !18
  br label %flip_endian.exit

flip_endian.exit:                                 ; preds = %flip_endian.exit.loopexit, %11
  %20 = phi i64 [ %.pre10, %flip_endian.exit.loopexit ], [ 0, %11 ]
  %21 = phi i64 [ %.pre8, %flip_endian.exit.loopexit ], [ 0, %11 ]
  %22 = phi i64 [ %.pre6, %flip_endian.exit.loopexit ], [ 0, %11 ]
  %23 = phi i64 [ %.pre, %flip_endian.exit.loopexit ], [ 0, %11 ]
  %24 = zext i64 %23 to i128
  store i128 %24, ptr %0, align 16, !tbaa !6
  %25 = zext i64 %22 to i128
  %26 = getelementptr inbounds nuw i8, ptr %0, i64 16
  store i128 %25, ptr %26, align 16, !tbaa !6
  %27 = zext i64 %21 to i128
  %28 = getelementptr inbounds nuw i8, ptr %0, i64 32
  store i128 %27, ptr %28, align 16, !tbaa !6
  %29 = zext i64 %20 to i128
  %30 = getelementptr inbounds nuw i8, ptr %0, i64 48
  store i128 %29, ptr %30, align 16, !tbaa !6
  call void @llvm.lifetime.end.p0(i64 32, ptr nonnull %4) #9
  br label %31

31:                                               ; preds = %flip_endian.exit, %10
  %.1 = phi i32 [ 0, %10 ], [ 1, %flip_endian.exit ]
  call void @llvm.lifetime.end.p0(i64 32, ptr nonnull %3) #9
  br label %32

32:                                               ; preds = %31, %6
  %.0 = phi i32 [ 0, %6 ], [ %.1, %31 ]
  ret i32 %.0
}